; Function Attrs: nounwind uwtable
define void @lv_textarea_cursor_down(ptr noundef %0) local_unnamed_addr #0 {
  %2 = alloca %struct.lv_point_t, align 4
  %.not = icmp eq ptr %0, null
  br i1 %.not, label %.preheader, label %lv_textarea_get_cursor_pos.exit

.preheader:                                       ; preds = %1, %.preheader
  br label %.preheader

lv_textarea_get_cursor_pos.exit:                  ; preds = %1
  call void @llvm.lifetime.start.p0(i64 8, ptr nonnull %2) #10
  %3 = getelementptr inbounds nuw i8, ptr %0, i64 64
  %4 = load ptr, ptr %3, align 8, !tbaa !22
  %5 = getelementptr inbounds nuw i8, ptr %0, i64 116
  %6 = load i32, ptr %5, align 4, !tbaa !20
  call void @lv_label_get_letter_pos(ptr noundef %4, i32 noundef %6, ptr noundef nonnull %2) #10
  %7 = call ptr @lv_obj_get_style_prop(ptr noundef nonnull %0, i32 noundef 0, i8 noundef zeroext 92) #10
  %8 = ptrtoint ptr %7 to i64
  %.sroa.0.0.extract.trunc.i = trunc i64 %8 to i32
  %9 = call ptr @lv_obj_get_style_prop(ptr noundef nonnull %0, i32 noundef 0, i8 noundef zeroext 90) #10
  %10 = call i32 @lv_font_get_line_height(ptr noundef %9) #10
  %11 = getelementptr inbounds nuw i8, ptr %2, i64 4
  %12 = load i32, ptr %11, align 4, !tbaa !31
  %13 = add i32 %.sroa.0.0.extract.trunc.i, 1
  %14 = add i32 %13, %10
  %15 = add nsw i32 %14, %12
  store i32 %15, ptr %11, align 4, !tbaa !31
  %16 = getelementptr inbounds nuw i8, ptr %0, i64 112
  %17 = load i32, ptr %16, align 8, !tbaa !21
  store i32 %17, ptr %2, align 4, !tbaa !27
  %18 = load ptr, ptr %3, align 8, !tbaa !22
  %19 = call i32 @lv_obj_get_height(ptr noundef %18) #10
  %20 = icmp slt i32 %15, %19
  br i1 %20, label %21, label %25

21:                                               ; preds = %lv_textarea_get_cursor_pos.exit
  %22 = load ptr, ptr %3, align 8, !tbaa !22
  %23 = call i32 @lv_label_get_letter_on(ptr noundef %22, ptr noundef nonnull %2, i1 noundef zeroext true) #10
  %24 = load i32, ptr %16, align 8, !tbaa !21
  call void @lv_textarea_set_cursor_pos(ptr noundef nonnull %0, i32 noundef %23)
  store i32 %24, ptr %16, align 8, !tbaa !21
  br label %25

25:                                               ; preds = %21, %lv_textarea_get_cursor_pos.exit
  call void @llvm.lifetime.end.p0(i64 8, ptr nonnull %2) #10
  ret void
}